target datalayout = "e-m:e-p270:32:32-p271:32:32-p272:64:64-i64:64-i128:128-f80:128-n8:16:32:64-S128"
target triple = "x86_64-pc-linux-gnu"

%"class.duckdb_apache::thrift::TBase" = type { ptr }
%"class.duckdb_parquet::DecimalType" = type { %"class.duckdb_apache::thrift::TBase", i32, i32 }
%"class.duckdb_parquet::TimeUnit" = type <{ %"class.duckdb_apache::thrift::TBase", %"class.duckdb_parquet::MilliSeconds", %"class.duckdb_parquet::MicroSeconds", %"class.duckdb_parquet::NanoSeconds", %"struct.duckdb_parquet::_TimeUnit__isset", [7 x i8] }>
%"class.duckdb_parquet::MilliSeconds" = type { %"class.duckdb_apache::thrift::TBase" }
%"class.duckdb_parquet::MicroSeconds" = type { %"class.duckdb_apache::thrift::TBase" }
%"class.duckdb_parquet::NanoSeconds" = type { %"class.duckdb_apache::thrift::TBase" }
%"struct.duckdb_parquet::_TimeUnit__isset" = type { i8 }
%"class.duckdb_parquet::TimestampType" = type { %"class.duckdb_apache::thrift::TBase", i8, [7 x i8], %"class.duckdb_parquet::TimeUnit" }
%"class.duckdb_parquet::TimeType" = type { %"class.duckdb_apache::thrift::TBase", i8, [7 x i8], %"class.duckdb_parquet::TimeUnit" }
%"class.duckdb_parquet::IntType" = type <{ %"class.duckdb_apache::thrift::TBase", i8, i8, [6 x i8] }>
%"class.duckdb_parquet::LogicalType" = type <{ %"class.duckdb_apache::thrift::TBase", %"class.duckdb_parquet::StringType", %"class.duckdb_parquet::MapType", %"class.duckdb_parquet::ListType", %"class.duckdb_parquet::EnumType", %"class.duckdb_parquet::DecimalType", %"class.duckdb_parquet::DateType", %"class.duckdb_parquet::TimeType", %"class.duckdb_parquet::TimestampType", %"class.duckdb_parquet::IntType", %"class.duckdb_parquet::NullType", %"class.duckdb_parquet::JsonType", %"class.duckdb_parquet::BsonType", %"class.duckdb_parquet::UUIDType", %"class.duckdb_parquet::Float16Type", %"struct.duckdb_parquet::_LogicalType__isset", [6 x i8] }>
%"class.duckdb_parquet::StringType" = type { %"class.duckdb_apache::thrift::TBase" }
%"class.duckdb_parquet::MapType" = type { %"class.duckdb_apache::thrift::TBase" }
%"class.duckdb_parquet::ListType" = type { %"class.duckdb_apache::thrift::TBase" }
%"class.duckdb_parquet::EnumType" = type { %"class.duckdb_apache::thrift::TBase" }
%"class.duckdb_parquet::DateType" = type { %"class.duckdb_apache::thrift::TBase" }
%"class.duckdb_parquet::NullType" = type { %"class.duckdb_apache::thrift::TBase" }
%"class.duckdb_parquet::JsonType" = type { %"class.duckdb_apache::thrift::TBase" }
%"class.duckdb_parquet::BsonType" = type { %"class.duckdb_apache::thrift::TBase" }
%"class.duckdb_parquet::UUIDType" = type { %"class.duckdb_apache::thrift::TBase" }
%"class.duckdb_parquet::Float16Type" = type { %"class.duckdb_apache::thrift::TBase" }
%"struct.duckdb_parquet::_LogicalType__isset" = type { i16 }

; Function Attrs: mustprogress nounwind uwtable
define noundef nonnull align 8 dereferenceable(10) ptr @_ZN14duckdb_parquet7IntTypeaSERKS0_(ptr noundef nonnull align 8 dereferenceable(10) %0, ptr noundef nonnull align 8 dereferenceable(10) %1) #1 align 2 {
  %3 = alloca ptr, align 8
  %4 = alloca ptr, align 8
  store ptr %0, ptr %3, align 8, !tbaa !197
  store ptr %1, ptr %4, align 8, !tbaa !197
  %5 = load ptr, ptr %3, align 8
  %6 = load ptr, ptr %4, align 8, !tbaa !197
  %7 = getelementptr inbounds nuw %"class.duckdb_parquet::IntType", ptr %6, i32 0, i32 1
  %8 = load i8, ptr %7, align 8, !tbaa !199
  %9 = getelementptr inbounds nuw %"class.duckdb_parquet::IntType", ptr %5, i32 0, i32 1
  store i8 %8, ptr %9, align 8, !tbaa !199
  %10 = load ptr, ptr %4, align 8, !tbaa !197
  %11 = getelementptr inbounds nuw %"class.duckdb_parquet::IntType", ptr %10, i32 0, i32 2
  %12 = load i8, ptr %11, align 1, !tbaa !201, !range !46, !noundef !47
  %13 = trunc i8 %12 to i1
  %14 = getelementptr inbounds nuw %"class.duckdb_parquet::IntType", ptr %5, i32 0, i32 2
  %15 = zext i1 %13 to i8
  store i8 %15, ptr %14, align 1, !tbaa !201
  ret ptr %5
}

; Function Attrs: mustprogress nounwind uwtable
define void @_ZN14duckdb_parquet11LogicalType13__set_INTEGERERKNS_7IntTypeE(ptr noundef nonnull align 8 dereferenceable(234) %0, ptr noundef nonnull align 8 dereferenceable(10) %1) #1 align 2 {
  %3 = alloca ptr, align 8
  %4 = alloca ptr, align 8
  store ptr %0, ptr %3, align 8, !tbaa !209
  store ptr %1, ptr %4, align 8, !tbaa !197
  %5 = load ptr, ptr %3, align 8
  %6 = load ptr, ptr %4, align 8, !tbaa !197
  %7 = getelementptr inbounds nuw %"class.duckdb_parquet::LogicalType", ptr %5, i32 0, i32 9
  %8 = call noundef nonnull align 8 dereferenceable(10) ptr @_ZN14duckdb_parquet7IntTypeaSERKS0_(ptr noundef nonnull align 8 dereferenceable(10) %7, ptr noundef nonnull align 8 dereferenceable(10) %6) #3
  %9 = getelementptr inbounds nuw %"class.duckdb_parquet::LogicalType", ptr %5, i32 0, i32 15
  %10 = load i16, ptr %9, align 8
  %11 = and i16 %10, -257
  %12 = or i16 %11, 256
  store i16 %12, ptr %9, align 8
  ret void
}