; Function Attrs: mustprogress nofree norecurse nosync nounwind willreturn memory(argmem: readwrite) uwtable
define void @_ZN14duckdb_parquet11LogicalType13__set_INTEGERERKNS_7IntTypeE(ptr noundef nonnull align 8 captures(none) dereferenceable(234) initializes((184, 186)) %0, ptr noundef nonnull readonly align 8 captures(none) dereferenceable(10) %1) local_unnamed_addr #10 align 2 {
  %3 = getelementptr inbounds nuw i8, ptr %1, i64 8
  %4 = load i8, ptr %3, align 8, !tbaa !216
  %5 = getelementptr inbounds nuw i8, ptr %0, i64 184
  store i8 %4, ptr %5, align 8, !tbaa !216
  %6 = getelementptr inbounds nuw i8, ptr %1, i64 9
  %7 = load i8, ptr %6, align 1, !tbaa !218, !range !137, !noundef !138
  %8 = getelementptr inbounds nuw i8, ptr %0, i64 185
  store i8 %7, ptr %8, align 1, !tbaa !218
  %9 = getelementptr inbounds nuw i8, ptr %0, i64 232
  %10 = load i16, ptr %9, align 8
  %11 = or i16 %10, 256
  store i16 %11, ptr %9, align 8
  ret void
}